(lp1
ccopy_reg
_reconstructor
p2
(cGLSP
GreedyLeastSquares
p3
c__builtin__
object
p4
NtRp5
(dp6
S'stopval'
p7
F9.9999999999999995e-07
sS'stopcrit'
p8
I2
sba.(lp1
ccopy_reg
_reconstructor
p2
(cGLSP
GreedyLeastSquares
p3
c__builtin__
object
p4
NtRp5
(dp6
S'stopval'
p7
F9.9999999999999995e-07
sS'stopcrit'
p8
I2
sba.